target datalayout = "e-m:e-p270:32:32-p271:32:32-p272:64:64-i64:64-i128:128-f80:128-n8:16:32:64-S128"
target triple = "x86_64-unknown-linux-gnu"

%struct.BlockDriver = type { ptr, i32, i8, i8, i8, i8, i8, i8, ptr, ptr, ptr, ptr, ptr, ptr, ptr, ptr, ptr, ptr, ptr, ptr, ptr, ptr, ptr, ptr, ptr, ptr, ptr, ptr, ptr, ptr, ptr, ptr, ptr, ptr, ptr, ptr, ptr, ptr, ptr, ptr, ptr, ptr, ptr, ptr, ptr, ptr, ptr, ptr, ptr, ptr, ptr, ptr, ptr, ptr, ptr, ptr, ptr, ptr, ptr, ptr, ptr, %struct.anon, ptr, ptr, ptr, ptr, ptr, ptr, ptr, ptr, ptr, ptr, ptr, ptr, ptr, ptr, ptr, ptr, ptr, ptr, ptr, ptr, ptr, ptr, ptr, ptr, ptr, ptr, ptr, ptr, ptr, ptr, ptr, ptr, ptr, ptr, ptr, ptr, ptr, ptr, ptr, ptr, ptr, ptr, ptr, ptr, ptr, ptr, ptr, ptr, ptr }
%struct.anon = type { ptr, ptr }
%struct.QTailQLink = type { ptr, ptr }
%struct.BlockDriverState = type { i32, i8, i8, i8, i8, i8, ptr, ptr, ptr, %struct.anon.0, i8, [4096 x i8], [4096 x i8], [4096 x i8], [16 x i8], ptr, [4096 x i8], %struct.BlockLimits, i32, i32, i32, i32, [32 x i8], %union.anon.1, %union.anon.2, %union.anon.3, i32, [16 x %struct.anon.4], ptr, %struct.anon.5, ptr, ptr, %struct.anon.6, ptr, ptr, i32, ptr, i64, i64, %struct.QemuMutex, %struct.anon.7, %struct.Stat64, i32, i32, i32, i32, i32, i32, %struct.QemuMutex, %struct.anon.8, %struct.CoQueue, i8, i32, i8, %struct.CoMutex, ptr, ptr }
%struct.anon.0 = type { ptr }
%struct.BlockLimits = type { i32, i64, i32, i64, i32, i32, i32, i64, i32, i64, i64, i32, i8, i32, i32, i32, i32, i32, i32, i32 }
%union.anon.1 = type { %struct.QTailQLink }
%union.anon.2 = type { %struct.QTailQLink }
%union.anon.3 = type { %struct.QTailQLink }
%struct.anon.4 = type { ptr }
%struct.anon.5 = type { ptr }
%struct.anon.6 = type { ptr }
%struct.anon.7 = type { ptr }
%struct.Stat64 = type { i64 }
%struct.QemuMutex = type { %union.pthread_mutex_t, i8 }
%union.pthread_mutex_t = type { %struct.__pthread_mutex_s }
%struct.__pthread_mutex_s = type { i32, i32, i32, i32, i32, i16, i16, %struct.__pthread_internal_list }
%struct.__pthread_internal_list = type { ptr, ptr }
%struct.anon.8 = type { ptr }
%struct.CoQueue = type { %struct.anon.9 }
%struct.anon.9 = type { ptr, ptr }
%struct.CoMutex = type { i32, ptr, %struct.anon.10, %struct.anon.10, i32, i32, ptr }
%struct.anon.10 = type { ptr }
%struct.BDRVVmdkState = type { %struct.CoMutex, i64, i8, i8, i32, i32, i32, ptr, ptr, ptr }
%struct.BdrvChild = type { ptr, ptr, ptr, i32, ptr, i64, i64, i8, i8, %struct.anon.11, %struct.anon.12 }
%struct.anon.11 = type { ptr, ptr }
%struct.anon.12 = type { ptr, ptr }

@.str = private unnamed_addr constant [5 x i8] c"vmdk\00", align 1
@.str.86 = private unnamed_addr constant [10 x i8] c"parentCID\00", align 1
@.str.87 = private unnamed_addr constant [4 x i8] c"CID\00", align 1
@.str.88 = private unnamed_addr constant [3 x i8] c"%x\00", align 1

; Function Attrs: nounwind sspstrong uwtable
define internal i32 @vmdk_read_cid(ptr noundef %bs, i32 noundef %parent, ptr noundef %pcid) #0 {
entry:
  %bs.addr = alloca ptr, align 8
  %parent.addr = alloca i32, align 4
  %pcid.addr = alloca ptr, align 8
  %desc = alloca ptr, align 8
  %cid = alloca i32, align 4
  %p_name = alloca ptr, align 8
  %cid_str = alloca ptr, align 8
  %cid_str_size = alloca i64, align 8
  %s = alloca ptr, align 8
  %ret = alloca i32, align 4
  store ptr %bs, ptr %bs.addr, align 8
  store i32 %parent, ptr %parent.addr, align 4
  store ptr %pcid, ptr %pcid.addr, align 8
  %0 = load ptr, ptr %bs.addr, align 8
  %opaque = getelementptr inbounds %struct.BlockDriverState, ptr %0, i32 0, i32 7
  %1 = load ptr, ptr %opaque, align 8
  store ptr %1, ptr %s, align 8
  %call = call noalias ptr @g_malloc0(i64 noundef 10240) #12
  store ptr %call, ptr %desc, align 8
  %2 = load ptr, ptr %bs.addr, align 8
  %file = getelementptr inbounds %struct.BlockDriverState, ptr %2, i32 0, i32 31
  %3 = load ptr, ptr %file, align 8
  %4 = load ptr, ptr %s, align 8
  %desc_offset = getelementptr inbounds %struct.BDRVVmdkState, ptr %4, i32 0, i32 1
  %5 = load i64, ptr %desc_offset, align 8
  %6 = load ptr, ptr %desc, align 8
  %call1 = call i32 @bdrv_pread(ptr noundef %3, i64 noundef %5, i64 noundef 10240, ptr noundef %6, i32 noundef 0)
  store i32 %call1, ptr %ret, align 4
  %7 = load i32, ptr %ret, align 4
  %cmp = icmp slt i32 %7, 0
  br i1 %cmp, label %if.then, label %if.end

if.then:                                          ; preds = %entry
  br label %out

if.end:                                           ; preds = %entry
  %8 = load i32, ptr %parent.addr, align 4
  %tobool = icmp ne i32 %8, 0
  br i1 %tobool, label %if.then2, label %if.else

if.then2:                                         ; preds = %if.end
  store ptr @.str.86, ptr %cid_str, align 8
  store i64 10, ptr %cid_str_size, align 8
  br label %if.end3

if.else:                                          ; preds = %if.end
  store ptr @.str.87, ptr %cid_str, align 8
  store i64 4, ptr %cid_str_size, align 8
  br label %if.end3

if.end3:                                          ; preds = %if.else, %if.then2
  %9 = load ptr, ptr %desc, align 8
  %arrayidx = getelementptr i8, ptr %9, i64 10239
  store i8 0, ptr %arrayidx, align 1
  %10 = load ptr, ptr %desc, align 8
  %11 = load ptr, ptr %cid_str, align 8
  %call4 = call ptr @strstr(ptr noundef %10, ptr noundef %11) #13
  store ptr %call4, ptr %p_name, align 8
  %12 = load ptr, ptr %p_name, align 8
  %cmp5 = icmp eq ptr %12, null
  br i1 %cmp5, label %if.then6, label %if.end7

if.then6:                                         ; preds = %if.end3
  store i32 -22, ptr %ret, align 4
  br label %out

if.end7:                                          ; preds = %if.end3
  %13 = load i64, ptr %cid_str_size, align 8
  %14 = load ptr, ptr %p_name, align 8
  %add.ptr = getelementptr i8, ptr %14, i64 %13
  store ptr %add.ptr, ptr %p_name, align 8
  %15 = load ptr, ptr %p_name, align 8
  %call8 = call i32 (ptr, ptr, ...) @__isoc99_sscanf(ptr noundef %15, ptr noundef @.str.88, ptr noundef %cid) #14
  %cmp9 = icmp ne i32 %call8, 1
  br i1 %cmp9, label %if.then10, label %if.end11

if.then10:                                        ; preds = %if.end7
  store i32 -22, ptr %ret, align 4
  br label %out

if.end11:                                         ; preds = %if.end7
  %16 = load i32, ptr %cid, align 4
  %17 = load ptr, ptr %pcid.addr, align 8
  store i32 %16, ptr %17, align 4
  store i32 0, ptr %ret, align 4
  br label %out

out:                                              ; preds = %if.end11, %if.then10, %if.then6, %if.then
  %18 = load ptr, ptr %desc, align 8
  call void @g_free(ptr noundef %18)
  %19 = load i32, ptr %ret, align 4
  ret i32 %19
}

; Function Attrs: nounwind sspstrong uwtable
define internal i32 @vmdk_is_cid_valid(ptr noundef %bs) #0 {
entry:
  %retval = alloca i32, align 4
  %bs.addr = alloca ptr, align 8
  %s = alloca ptr, align 8
  %cur_pcid = alloca i32, align 4
  %p_bs = alloca ptr, align 8
  store ptr %bs, ptr %bs.addr, align 8
  %0 = load ptr, ptr %bs.addr, align 8
  %opaque = getelementptr inbounds %struct.BlockDriverState, ptr %0, i32 0, i32 7
  %1 = load ptr, ptr %opaque, align 8
  store ptr %1, ptr %s, align 8
  %2 = load ptr, ptr %s, align 8
  %cid_checked = getelementptr inbounds %struct.BDRVVmdkState, ptr %2, i32 0, i32 3
  %3 = load i8, ptr %cid_checked, align 1
  %tobool = trunc i8 %3 to i1
  br i1 %tobool, label %if.end12, label %land.lhs.true

land.lhs.true:                                    ; preds = %entry
  %4 = load ptr, ptr %bs.addr, align 8
  %backing = getelementptr inbounds %struct.BlockDriverState, ptr %4, i32 0, i32 30
  %5 = load ptr, ptr %backing, align 8
  %tobool1 = icmp ne ptr %5, null
  br i1 %tobool1, label %if.then, label %if.end12

if.then:                                          ; preds = %land.lhs.true
  %6 = load ptr, ptr %bs.addr, align 8
  %backing2 = getelementptr inbounds %struct.BlockDriverState, ptr %6, i32 0, i32 30
  %7 = load ptr, ptr %backing2, align 8
  %bs3 = getelementptr inbounds %struct.BdrvChild, ptr %7, i32 0, i32 0
  %8 = load ptr, ptr %bs3, align 8
  store ptr %8, ptr %p_bs, align 8
  %9 = load ptr, ptr %p_bs, align 8
  %drv = getelementptr inbounds %struct.BlockDriverState, ptr %9, i32 0, i32 6
  %10 = load ptr, ptr %drv, align 8
  %format_name = getelementptr inbounds %struct.BlockDriver, ptr %10, i32 0, i32 0
  %11 = load ptr, ptr %format_name, align 8
  %call = call i32 @strcmp(ptr noundef %11, ptr noundef @.str) #13
  %tobool4 = icmp ne i32 %call, 0
  br i1 %tobool4, label %if.then5, label %if.end

if.then5:                                         ; preds = %if.then
  store i32 0, ptr %retval, align 4
  br label %return

if.end:                                           ; preds = %if.then
  %12 = load ptr, ptr %p_bs, align 8
  %call6 = call i32 @vmdk_read_cid(ptr noundef %12, i32 noundef 0, ptr noundef %cur_pcid)
  %cmp = icmp ne i32 %call6, 0
  br i1 %cmp, label %if.then7, label %if.end8

if.then7:                                         ; preds = %if.end
  store i32 0, ptr %retval, align 4
  br label %return

if.end8:                                          ; preds = %if.end
  %13 = load ptr, ptr %s, align 8
  %parent_cid = getelementptr inbounds %struct.BDRVVmdkState, ptr %13, i32 0, i32 5
  %14 = load i32, ptr %parent_cid, align 8
  %15 = load i32, ptr %cur_pcid, align 4
  %cmp9 = icmp ne i32 %14, %15
  br i1 %cmp9, label %if.then10, label %if.end11

if.then10:                                        ; preds = %if.end8
  store i32 0, ptr %retval, align 4
  br label %return

if.end11:                                         ; preds = %if.end8
  br label %if.end12

if.end12:                                         ; preds = %if.end11, %land.lhs.true, %entry
  %16 = load ptr, ptr %s, align 8
  %cid_checked13 = getelementptr inbounds %struct.BDRVVmdkState, ptr %16, i32 0, i32 3
  store i8 1, ptr %cid_checked13, align 1
  store i32 1, ptr %retval, align 4
  br label %return

return:                                           ; preds = %if.end12, %if.then10, %if.then7, %if.then5
  %17 = load i32, ptr %retval, align 4
  ret i32 %17
}