; Function Attrs: nounwind sspstrong uwtable
define internal range(i32 0, 2) i32 @vmdk_is_cid_valid(ptr noundef readonly captures(none) %bs) #0 {
entry:
  %cid.i = alloca i32, align 4
  %opaque = getelementptr inbounds nuw i8, ptr %bs, i64 24
  %0 = load ptr, ptr %opaque, align 8
  %cid_checked = getelementptr inbounds nuw i8, ptr %0, i64 57
  %1 = load i8, ptr %cid_checked, align 1
  %tobool = trunc i8 %1 to i1
  br i1 %tobool, label %if.end12, label %land.lhs.true

land.lhs.true:                                    ; preds = %entry
  %backing = getelementptr inbounds nuw i8, ptr %bs, i64 16832
  %2 = load ptr, ptr %backing, align 8
  %tobool1.not = icmp eq ptr %2, null
  br i1 %tobool1.not, label %if.end12, label %if.then

if.then:                                          ; preds = %land.lhs.true
  %3 = load ptr, ptr %2, align 8
  %drv = getelementptr inbounds nuw i8, ptr %3, i64 16
  %4 = load ptr, ptr %drv, align 8
  %5 = load ptr, ptr %4, align 8
  %call = tail call i32 @strcmp(ptr noundef nonnull dereferenceable(1) %5, ptr noundef nonnull dereferenceable(5) @.str) #19
  %tobool4.not = icmp eq i32 %call, 0
  br i1 %tobool4.not, label %if.end, label %return

if.end:                                           ; preds = %if.then
  call void @llvm.lifetime.start.p0(i64 4, ptr nonnull %cid.i)
  %opaque.i = getelementptr inbounds nuw i8, ptr %3, i64 24
  %6 = load ptr, ptr %opaque.i, align 8
  %call.i = tail call noalias dereferenceable_or_null(10240) ptr @g_malloc0(i64 noundef 10240) #18
  %file.i = getelementptr inbounds nuw i8, ptr %3, i64 16840
  %7 = load ptr, ptr %file.i, align 8
  %desc_offset.i = getelementptr inbounds nuw i8, ptr %6, i64 48
  %8 = load i64, ptr %desc_offset.i, align 8
  %call1.i = tail call i32 @bdrv_pread(ptr noundef %7, i64 noundef %8, i64 noundef 10240, ptr noundef %call.i, i32 noundef 0) #15
  %cmp.i = icmp slt i32 %call1.i, 0
  br i1 %cmp.i, label %vmdk_read_cid.exit.thread, label %if.end.i

if.end.i:                                         ; preds = %if.end
  %arrayidx.i = getelementptr i8, ptr %call.i, i64 10239
  store i8 0, ptr %arrayidx.i, align 1
  %call4.i = tail call ptr @strstr(ptr noundef nonnull dereferenceable(1) %call.i, ptr noundef nonnull dereferenceable(1) @.str.87) #19
  %cmp5.i = icmp eq ptr %call4.i, null
  br i1 %cmp5.i, label %vmdk_read_cid.exit.thread, label %if.end7.i

if.end7.i:                                        ; preds = %if.end.i
  %add.ptr.i = getelementptr i8, ptr %call4.i, i64 4
  %call8.i = call i32 (ptr, ptr, ...) @__isoc99_sscanf(ptr noundef %add.ptr.i, ptr noundef nonnull @.str.88, ptr noundef nonnull %cid.i) #15
  %cmp9.not.i = icmp eq i32 %call8.i, 1
  br i1 %cmp9.not.i, label %if.end8, label %vmdk_read_cid.exit.thread

vmdk_read_cid.exit.thread:                        ; preds = %if.end, %if.end.i, %if.end7.i
  call void @g_free(ptr noundef %call.i) #15
  call void @llvm.lifetime.end.p0(i64 4, ptr nonnull %cid.i)
  br label %return

if.end8:                                          ; preds = %if.end7.i
  %9 = load i32, ptr %cid.i, align 4
  call void @g_free(ptr noundef nonnull %call.i) #15
  call void @llvm.lifetime.end.p0(i64 4, ptr nonnull %cid.i)
  %parent_cid = getelementptr inbounds nuw i8, ptr %0, i64 64
  %10 = load i32, ptr %parent_cid, align 8
  %cmp9.not = icmp eq i32 %10, %9
  br i1 %cmp9.not, label %if.end12, label %return

if.end12:                                         ; preds = %if.end8, %land.lhs.true, %entry
  store i8 1, ptr %cid_checked, align 1
  br label %return

return:                                           ; preds = %vmdk_read_cid.exit.thread, %if.end8, %if.then, %if.end12
  %retval.0 = phi i32 [ 1, %if.end12 ], [ 0, %if.then ], [ 0, %if.end8 ], [ 0, %vmdk_read_cid.exit.thread ]
  ret i32 %retval.0
}